target datalayout = "e-m:e-p270:32:32-p271:32:32-p272:64:64-i64:64-i128:128-f80:128-n8:16:32:64-S128"
target triple = "x86_64-pc-linux-gnu"

%"class.boost::log::v2_mt_posix::attributes::named_scope_list" = type <{ %"struct.boost::log::v2_mt_posix::attributes::aux::named_scope_list_node", i64, i8, [7 x i8] }>
%"struct.boost::log::v2_mt_posix::attributes::aux::named_scope_list_node" = type { ptr, ptr }

; Function Attrs: inlinehint mustprogress nounwind uwtable
define linkonce_odr void @_ZSt4swapIbENSt9enable_ifIXsr6__and_ISt6__not_ISt15__is_tuple_likeIT_EESt21is_move_constructibleIS3_ESt18is_move_assignableIS3_EEE5valueEvE4typeERS3_SC_(ptr noundef nonnull align 1 dereferenceable(1) %0, ptr noundef nonnull align 1 dereferenceable(1) %1) #5 comdat {
  %3 = alloca ptr, align 8
  %4 = alloca ptr, align 8
  %5 = alloca i8, align 1
  store ptr %0, ptr %3, align 8, !tbaa !3
  store ptr %1, ptr %4, align 8, !tbaa !3
  call void @llvm.lifetime.start.p0(i64 1, ptr %5) #17
  %6 = load ptr, ptr %3, align 8, !tbaa !3
  %7 = load i8, ptr %6, align 1, !tbaa !28, !range !29, !noundef !30
  %8 = trunc i8 %7 to i1
  %9 = zext i1 %8 to i8
  store i8 %9, ptr %5, align 1, !tbaa !28
  %10 = load ptr, ptr %4, align 8, !tbaa !3
  %11 = load i8, ptr %10, align 1, !tbaa !28, !range !29, !noundef !30
  %12 = trunc i8 %11 to i1
  %13 = load ptr, ptr %3, align 8, !tbaa !3
  %14 = zext i1 %12 to i8
  store i8 %14, ptr %13, align 1, !tbaa !28
  %15 = load i8, ptr %5, align 1, !tbaa !28, !range !29, !noundef !30
  %16 = trunc i8 %15 to i1
  %17 = load ptr, ptr %4, align 8, !tbaa !3
  %18 = zext i1 %16 to i8
  store i8 %18, ptr %17, align 1, !tbaa !28
  call void @llvm.lifetime.end.p0(i64 1, ptr %5) #17
  ret void
}

; Function Attrs: inlinehint mustprogress nounwind uwtable
define linkonce_odr void @_ZSt4swapImENSt9enable_ifIXsr6__and_ISt6__not_ISt15__is_tuple_likeIT_EESt21is_move_constructibleIS3_ESt18is_move_assignableIS3_EEE5valueEvE4typeERS3_SC_(ptr noundef nonnull align 8 dereferenceable(8) %0, ptr noundef nonnull align 8 dereferenceable(8) %1) #5 comdat {
  %3 = alloca ptr, align 8
  %4 = alloca ptr, align 8
  %5 = alloca i64, align 8
  store ptr %0, ptr %3, align 8, !tbaa !3
  store ptr %1, ptr %4, align 8, !tbaa !3
  call void @llvm.lifetime.start.p0(i64 8, ptr %5) #17
  %6 = load ptr, ptr %3, align 8, !tbaa !3
  %7 = load i64, ptr %6, align 8, !tbaa !19
  store i64 %7, ptr %5, align 8, !tbaa !19
  %8 = load ptr, ptr %4, align 8, !tbaa !3
  %9 = load i64, ptr %8, align 8, !tbaa !19
  %10 = load ptr, ptr %3, align 8, !tbaa !3
  store i64 %9, ptr %10, align 8, !tbaa !19
  %11 = load i64, ptr %5, align 8, !tbaa !19
  %12 = load ptr, ptr %4, align 8, !tbaa !3
  store i64 %11, ptr %12, align 8, !tbaa !19
  call void @llvm.lifetime.end.p0(i64 8, ptr %5) #17
  ret void
}

; Function Attrs: inlinehint mustprogress nounwind uwtable
define linkonce_odr hidden void @_ZSt4swapIN5boost3log11v2_mt_posix10attributes3aux21named_scope_list_nodeEENSt9enable_ifIXsr6__and_ISt6__not_ISt15__is_tuple_likeIT_EESt21is_move_constructibleIS9_ESt18is_move_assignableIS9_EEE5valueEvE4typeERS9_SI_(ptr noundef nonnull align 8 dereferenceable(16) %0, ptr noundef nonnull align 8 dereferenceable(16) %1) #5 comdat {
  %3 = alloca ptr, align 8
  %4 = alloca ptr, align 8
  %5 = alloca %"struct.boost::log::v2_mt_posix::attributes::aux::named_scope_list_node", align 8
  store ptr %0, ptr %3, align 8, !tbaa !3
  store ptr %1, ptr %4, align 8, !tbaa !3
  call void @llvm.lifetime.start.p0(i64 16, ptr %5) #17
  %6 = load ptr, ptr %3, align 8, !tbaa !3
  call void @llvm.memcpy.p0.p0.i64(ptr align 8 %5, ptr align 8 %6, i64 16, i1 false), !tbaa.struct !27
  %7 = load ptr, ptr %4, align 8, !tbaa !3
  %8 = load ptr, ptr %3, align 8, !tbaa !3
  call void @llvm.memcpy.p0.p0.i64(ptr align 8 %8, ptr align 8 %7, i64 16, i1 false), !tbaa.struct !27
  %9 = load ptr, ptr %4, align 8, !tbaa !3
  call void @llvm.memcpy.p0.p0.i64(ptr align 8 %9, ptr align 8 %5, i64 16, i1 false), !tbaa.struct !27
  call void @llvm.lifetime.end.p0(i64 16, ptr %5) #17
  ret void
}

; Function Attrs: inlinehint mustprogress nounwind uwtable
define linkonce_odr hidden void @_ZSt4swapIPN5boost3log11v2_mt_posix10attributes3aux21named_scope_list_nodeEENSt9enable_ifIXsr6__and_ISt6__not_ISt15__is_tuple_likeIT_EESt21is_move_constructibleISA_ESt18is_move_assignableISA_EEE5valueEvE4typeERSA_SJ_(ptr noundef nonnull align 8 dereferenceable(8) %0, ptr noundef nonnull align 8 dereferenceable(8) %1) #5 comdat {
  %3 = alloca ptr, align 8
  %4 = alloca ptr, align 8
  %5 = alloca ptr, align 8
  store ptr %0, ptr %3, align 8, !tbaa !3
  store ptr %1, ptr %4, align 8, !tbaa !3
  call void @llvm.lifetime.start.p0(i64 8, ptr %5) #17
  %6 = load ptr, ptr %3, align 8, !tbaa !3
  %7 = load ptr, ptr %6, align 8, !tbaa !3
  store ptr %7, ptr %5, align 8, !tbaa !3
  %8 = load ptr, ptr %4, align 8, !tbaa !3
  %9 = load ptr, ptr %8, align 8, !tbaa !3
  %10 = load ptr, ptr %3, align 8, !tbaa !3
  store ptr %9, ptr %10, align 8, !tbaa !3
  %11 = load ptr, ptr %5, align 8, !tbaa !3
  %12 = load ptr, ptr %4, align 8, !tbaa !3
  store ptr %11, ptr %12, align 8, !tbaa !3
  call void @llvm.lifetime.end.p0(i64 8, ptr %5) #17
  ret void
}

; Function Attrs: mustprogress nounwind uwtable
define linkonce_odr hidden noundef zeroext i1 @_ZNK5boost3log11v2_mt_posix10attributes16named_scope_list5emptyEv(ptr noundef nonnull align 8 dereferenceable(25) %0) #2 comdat align 2 {
  %2 = alloca ptr, align 8
  store ptr %0, ptr %2, align 8, !tbaa !3
  %3 = load ptr, ptr %2, align 8
  %4 = getelementptr inbounds nuw %"class.boost::log::v2_mt_posix::attributes::named_scope_list", ptr %3, i32 0, i32 1
  %5 = load i64, ptr %4, align 8, !tbaa !9
  %6 = icmp eq i64 %5, 0
  ret i1 %6
}

; Function Attrs: mustprogress uwtable
define void @_ZN5boost3log11v2_mt_posix10attributes16named_scope_list4swapERS3_(ptr noundef nonnull align 8 dereferenceable(25) %0, ptr noundef nonnull align 8 dereferenceable(25) %1) #1 align 2 {
  %3 = alloca ptr, align 8
  %4 = alloca ptr, align 8
  store ptr %0, ptr %3, align 8, !tbaa !3
  store ptr %1, ptr %4, align 8, !tbaa !3
  %5 = load ptr, ptr %3, align 8
  %6 = call noundef zeroext i1 @_ZNK5boost3log11v2_mt_posix10attributes16named_scope_list5emptyEv(ptr noundef nonnull align 8 dereferenceable(25) %5)
  br i1 %6, label %64, label %7

7:                                                ; preds = %2
  %8 = load ptr, ptr %4, align 8, !tbaa !3
  %9 = call noundef zeroext i1 @_ZNK5boost3log11v2_mt_posix10attributes16named_scope_list5emptyEv(ptr noundef nonnull align 8 dereferenceable(25) %8)
  br i1 %9, label %38, label %10

10:                                               ; preds = %7
  %11 = getelementptr inbounds nuw %"class.boost::log::v2_mt_posix::attributes::named_scope_list", ptr %5, i32 0, i32 0
  %12 = getelementptr inbounds nuw %"struct.boost::log::v2_mt_posix::attributes::aux::named_scope_list_node", ptr %11, i32 0, i32 1
  %13 = load ptr, ptr %12, align 8, !tbaa !20
  %14 = getelementptr inbounds nuw %"struct.boost::log::v2_mt_posix::attributes::aux::named_scope_list_node", ptr %13, i32 0, i32 0
  %15 = load ptr, ptr %4, align 8, !tbaa !3
  %16 = getelementptr inbounds nuw %"class.boost::log::v2_mt_posix::attributes::named_scope_list", ptr %15, i32 0, i32 0
  %17 = getelementptr inbounds nuw %"struct.boost::log::v2_mt_posix::attributes::aux::named_scope_list_node", ptr %16, i32 0, i32 1
  %18 = load ptr, ptr %17, align 8, !tbaa !20
  %19 = getelementptr inbounds nuw %"struct.boost::log::v2_mt_posix::attributes::aux::named_scope_list_node", ptr %18, i32 0, i32 0
  call void @_ZSt4swapIPN5boost3log11v2_mt_posix10attributes3aux21named_scope_list_nodeEENSt9enable_ifIXsr6__and_ISt6__not_ISt15__is_tuple_likeIT_EESt21is_move_constructibleISA_ESt18is_move_assignableISA_EEE5valueEvE4typeERSA_SJ_(ptr noundef nonnull align 8 dereferenceable(8) %14, ptr noundef nonnull align 8 dereferenceable(8) %19) #17
  %20 = getelementptr inbounds nuw %"class.boost::log::v2_mt_posix::attributes::named_scope_list", ptr %5, i32 0, i32 0
  %21 = getelementptr inbounds nuw %"struct.boost::log::v2_mt_posix::attributes::aux::named_scope_list_node", ptr %20, i32 0, i32 0
  %22 = load ptr, ptr %21, align 8, !tbaa !18
  %23 = getelementptr inbounds nuw %"struct.boost::log::v2_mt_posix::attributes::aux::named_scope_list_node", ptr %22, i32 0, i32 1
  %24 = load ptr, ptr %4, align 8, !tbaa !3
  %25 = getelementptr inbounds nuw %"class.boost::log::v2_mt_posix::attributes::named_scope_list", ptr %24, i32 0, i32 0
  %26 = getelementptr inbounds nuw %"struct.boost::log::v2_mt_posix::attributes::aux::named_scope_list_node", ptr %25, i32 0, i32 0
  %27 = load ptr, ptr %26, align 8, !tbaa !18
  %28 = getelementptr inbounds nuw %"struct.boost::log::v2_mt_posix::attributes::aux::named_scope_list_node", ptr %27, i32 0, i32 1
  call void @_ZSt4swapIPN5boost3log11v2_mt_posix10attributes3aux21named_scope_list_nodeEENSt9enable_ifIXsr6__and_ISt6__not_ISt15__is_tuple_likeIT_EESt21is_move_constructibleISA_ESt18is_move_assignableISA_EEE5valueEvE4typeERSA_SJ_(ptr noundef nonnull align 8 dereferenceable(8) %23, ptr noundef nonnull align 8 dereferenceable(8) %28) #17
  %29 = getelementptr inbounds nuw %"class.boost::log::v2_mt_posix::attributes::named_scope_list", ptr %5, i32 0, i32 0
  %30 = load ptr, ptr %4, align 8, !tbaa !3
  %31 = getelementptr inbounds nuw %"class.boost::log::v2_mt_posix::attributes::named_scope_list", ptr %30, i32 0, i32 0
  call void @_ZSt4swapIN5boost3log11v2_mt_posix10attributes3aux21named_scope_list_nodeEENSt9enable_ifIXsr6__and_ISt6__not_ISt15__is_tuple_likeIT_EESt21is_move_constructibleIS9_ESt18is_move_assignableIS9_EEE5valueEvE4typeERS9_SI_(ptr noundef nonnull align 8 dereferenceable(16) %29, ptr noundef nonnull align 8 dereferenceable(16) %31) #17
  %32 = getelementptr inbounds nuw %"class.boost::log::v2_mt_posix::attributes::named_scope_list", ptr %5, i32 0, i32 1
  %33 = load ptr, ptr %4, align 8, !tbaa !3
  %34 = getelementptr inbounds nuw %"class.boost::log::v2_mt_posix::attributes::named_scope_list", ptr %33, i32 0, i32 1
  call void @_ZSt4swapImENSt9enable_ifIXsr6__and_ISt6__not_ISt15__is_tuple_likeIT_EESt21is_move_constructibleIS3_ESt18is_move_assignableIS3_EEE5valueEvE4typeERS3_SC_(ptr noundef nonnull align 8 dereferenceable(8) %32, ptr noundef nonnull align 8 dereferenceable(8) %34) #17
  %35 = getelementptr inbounds nuw %"class.boost::log::v2_mt_posix::attributes::named_scope_list", ptr %5, i32 0, i32 2
  %36 = load ptr, ptr %4, align 8, !tbaa !3
  %37 = getelementptr inbounds nuw %"class.boost::log::v2_mt_posix::attributes::named_scope_list", ptr %36, i32 0, i32 2
  call void @_ZSt4swapIbENSt9enable_ifIXsr6__and_ISt6__not_ISt15__is_tuple_likeIT_EESt21is_move_constructibleIS3_ESt18is_move_assignableIS3_EEE5valueEvE4typeERS3_SC_(ptr noundef nonnull align 1 dereferenceable(1) %35, ptr noundef nonnull align 1 dereferenceable(1) %37) #17
  br label %63

38:                                               ; preds = %7
  %39 = load ptr, ptr %4, align 8, !tbaa !3
  %40 = getelementptr inbounds nuw %"class.boost::log::v2_mt_posix::attributes::named_scope_list", ptr %39, i32 0, i32 0
  %41 = getelementptr inbounds nuw %"class.boost::log::v2_mt_posix::attributes::named_scope_list", ptr %5, i32 0, i32 0
  %42 = getelementptr inbounds nuw %"struct.boost::log::v2_mt_posix::attributes::aux::named_scope_list_node", ptr %41, i32 0, i32 0
  %43 = load ptr, ptr %42, align 8, !tbaa !18
  %44 = getelementptr inbounds nuw %"struct.boost::log::v2_mt_posix::attributes::aux::named_scope_list_node", ptr %43, i32 0, i32 1
  store ptr %40, ptr %44, align 8, !tbaa !16
  %45 = getelementptr inbounds nuw %"class.boost::log::v2_mt_posix::attributes::named_scope_list", ptr %5, i32 0, i32 0
  %46 = getelementptr inbounds nuw %"struct.boost::log::v2_mt_posix::attributes::aux::named_scope_list_node", ptr %45, i32 0, i32 1
  %47 = load ptr, ptr %46, align 8, !tbaa !20
  %48 = getelementptr inbounds nuw %"struct.boost::log::v2_mt_posix::attributes::aux::named_scope_list_node", ptr %47, i32 0, i32 0
  store ptr %40, ptr %48, align 8, !tbaa !15
  %49 = getelementptr inbounds nuw %"class.boost::log::v2_mt_posix::attributes::named_scope_list", ptr %5, i32 0, i32 0
  %50 = load ptr, ptr %4, align 8, !tbaa !3
  %51 = getelementptr inbounds nuw %"class.boost::log::v2_mt_posix::attributes::named_scope_list", ptr %50, i32 0, i32 0
  call void @llvm.memcpy.p0.p0.i64(ptr align 8 %51, ptr align 8 %49, i64 16, i1 false), !tbaa.struct !27
  %52 = getelementptr inbounds nuw %"class.boost::log::v2_mt_posix::attributes::named_scope_list", ptr %5, i32 0, i32 0
  %53 = getelementptr inbounds nuw %"class.boost::log::v2_mt_posix::attributes::named_scope_list", ptr %5, i32 0, i32 0
  %54 = getelementptr inbounds nuw %"struct.boost::log::v2_mt_posix::attributes::aux::named_scope_list_node", ptr %53, i32 0, i32 0
  store ptr %52, ptr %54, align 8, !tbaa !18
  %55 = getelementptr inbounds nuw %"class.boost::log::v2_mt_posix::attributes::named_scope_list", ptr %5, i32 0, i32 0
  %56 = getelementptr inbounds nuw %"struct.boost::log::v2_mt_posix::attributes::aux::named_scope_list_node", ptr %55, i32 0, i32 1
  store ptr %52, ptr %56, align 8, !tbaa !20
  %57 = getelementptr inbounds nuw %"class.boost::log::v2_mt_posix::attributes::named_scope_list", ptr %5, i32 0, i32 1
  %58 = load ptr, ptr %4, align 8, !tbaa !3
  %59 = getelementptr inbounds nuw %"class.boost::log::v2_mt_posix::attributes::named_scope_list", ptr %58, i32 0, i32 1
  call void @_ZSt4swapImENSt9enable_ifIXsr6__and_ISt6__not_ISt15__is_tuple_likeIT_EESt21is_move_constructibleIS3_ESt18is_move_assignableIS3_EEE5valueEvE4typeERS3_SC_(ptr noundef nonnull align 8 dereferenceable(8) %57, ptr noundef nonnull align 8 dereferenceable(8) %59) #17
  %60 = getelementptr inbounds nuw %"class.boost::log::v2_mt_posix::attributes::named_scope_list", ptr %5, i32 0, i32 2
  %61 = load ptr, ptr %4, align 8, !tbaa !3
  %62 = getelementptr inbounds nuw %"class.boost::log::v2_mt_posix::attributes::named_scope_list", ptr %61, i32 0, i32 2
  call void @_ZSt4swapIbENSt9enable_ifIXsr6__and_ISt6__not_ISt15__is_tuple_likeIT_EESt21is_move_constructibleIS3_ESt18is_move_assignableIS3_EEE5valueEvE4typeERS3_SC_(ptr noundef nonnull align 1 dereferenceable(1) %60, ptr noundef nonnull align 1 dereferenceable(1) %62) #17
  br label %63

63:                                               ; preds = %38, %10
  br label %97

64:                                               ; preds = %2
  %65 = load ptr, ptr %4, align 8, !tbaa !3
  %66 = call noundef zeroext i1 @_ZNK5boost3log11v2_mt_posix10attributes16named_scope_list5emptyEv(ptr noundef nonnull align 8 dereferenceable(25) %65)
  br i1 %66, label %96, label %67

67:                                               ; preds = %64
  %68 = getelementptr inbounds nuw %"class.boost::log::v2_mt_posix::attributes::named_scope_list", ptr %5, i32 0, i32 0
  %69 = load ptr, ptr %4, align 8, !tbaa !3
  %70 = getelementptr inbounds nuw %"class.boost::log::v2_mt_posix::attributes::named_scope_list", ptr %69, i32 0, i32 0
  %71 = getelementptr inbounds nuw %"struct.boost::log::v2_mt_posix::attributes::aux::named_scope_list_node", ptr %70, i32 0, i32 0
  %72 = load ptr, ptr %71, align 8, !tbaa !18
  %73 = getelementptr inbounds nuw %"struct.boost::log::v2_mt_posix::attributes::aux::named_scope_list_node", ptr %72, i32 0, i32 1
  store ptr %68, ptr %73, align 8, !tbaa !16
  %74 = load ptr, ptr %4, align 8, !tbaa !3
  %75 = getelementptr inbounds nuw %"class.boost::log::v2_mt_posix::attributes::named_scope_list", ptr %74, i32 0, i32 0
  %76 = getelementptr inbounds nuw %"struct.boost::log::v2_mt_posix::attributes::aux::named_scope_list_node", ptr %75, i32 0, i32 1
  %77 = load ptr, ptr %76, align 8, !tbaa !20
  %78 = getelementptr inbounds nuw %"struct.boost::log::v2_mt_posix::attributes::aux::named_scope_list_node", ptr %77, i32 0, i32 0
  store ptr %68, ptr %78, align 8, !tbaa !15
  %79 = load ptr, ptr %4, align 8, !tbaa !3
  %80 = getelementptr inbounds nuw %"class.boost::log::v2_mt_posix::attributes::named_scope_list", ptr %79, i32 0, i32 0
  %81 = getelementptr inbounds nuw %"class.boost::log::v2_mt_posix::attributes::named_scope_list", ptr %5, i32 0, i32 0
  call void @llvm.memcpy.p0.p0.i64(ptr align 8 %81, ptr align 8 %80, i64 16, i1 false), !tbaa.struct !27
  %82 = load ptr, ptr %4, align 8, !tbaa !3
  %83 = getelementptr inbounds nuw %"class.boost::log::v2_mt_posix::attributes::named_scope_list", ptr %82, i32 0, i32 0
  %84 = load ptr, ptr %4, align 8, !tbaa !3
  %85 = getelementptr inbounds nuw %"class.boost::log::v2_mt_posix::attributes::named_scope_list", ptr %84, i32 0, i32 0
  %86 = getelementptr inbounds nuw %"struct.boost::log::v2_mt_posix::attributes::aux::named_scope_list_node", ptr %85, i32 0, i32 0
  store ptr %83, ptr %86, align 8, !tbaa !18
  %87 = load ptr, ptr %4, align 8, !tbaa !3
  %88 = getelementptr inbounds nuw %"class.boost::log::v2_mt_posix::attributes::named_scope_list", ptr %87, i32 0, i32 0
  %89 = getelementptr inbounds nuw %"struct.boost::log::v2_mt_posix::attributes::aux::named_scope_list_node", ptr %88, i32 0, i32 1
  store ptr %83, ptr %89, align 8, !tbaa !20
  %90 = getelementptr inbounds nuw %"class.boost::log::v2_mt_posix::attributes::named_scope_list", ptr %5, i32 0, i32 1
  %91 = load ptr, ptr %4, align 8, !tbaa !3
  %92 = getelementptr inbounds nuw %"class.boost::log::v2_mt_posix::attributes::named_scope_list", ptr %91, i32 0, i32 1
  call void @_ZSt4swapImENSt9enable_ifIXsr6__and_ISt6__not_ISt15__is_tuple_likeIT_EESt21is_move_constructibleIS3_ESt18is_move_assignableIS3_EEE5valueEvE4typeERS3_SC_(ptr noundef nonnull align 8 dereferenceable(8) %90, ptr noundef nonnull align 8 dereferenceable(8) %92) #17
  %93 = getelementptr inbounds nuw %"class.boost::log::v2_mt_posix::attributes::named_scope_list", ptr %5, i32 0, i32 2
  %94 = load ptr, ptr %4, align 8, !tbaa !3
  %95 = getelementptr inbounds nuw %"class.boost::log::v2_mt_posix::attributes::named_scope_list", ptr %94, i32 0, i32 2
  call void @_ZSt4swapIbENSt9enable_ifIXsr6__and_ISt6__not_ISt15__is_tuple_likeIT_EESt21is_move_constructibleIS3_ESt18is_move_assignableIS3_EEE5valueEvE4typeERS3_SC_(ptr noundef nonnull align 1 dereferenceable(1) %93, ptr noundef nonnull align 1 dereferenceable(1) %95) #17
  br label %96

96:                                               ; preds = %67, %64
  br label %97

97:                                               ; preds = %96, %63
  ret void
}