; Function Attrs: mustprogress nofree norecurse nosync nounwind willreturn memory(readwrite, inaccessiblemem: none) uwtable
define void @_ZN5boost3log11v2_mt_posix10attributes16named_scope_list4swapERS3_(ptr noundef nonnull align 8 dereferenceable(25) %0, ptr noundef nonnull align 8 dereferenceable(25) %1) local_unnamed_addr #5 align 2 {
  %3 = alloca %"struct.boost::log::v2_mt_posix::attributes::aux::named_scope_list_node", align 8
  %4 = getelementptr inbounds nuw i8, ptr %0, i64 16
  %5 = load i64, ptr %4, align 8, !tbaa !32
  %6 = icmp eq i64 %5, 0
  %7 = getelementptr inbounds nuw i8, ptr %1, i64 16
  %8 = load i64, ptr %7, align 8, !tbaa !32
  %9 = icmp eq i64 %8, 0
  br i1 %6, label %32, label %10

10:                                               ; preds = %2
  br i1 %9, label %26, label %11

11:                                               ; preds = %10
  %12 = getelementptr inbounds nuw i8, ptr %0, i64 8
  %13 = load ptr, ptr %12, align 8, !tbaa !33
  %14 = getelementptr inbounds nuw i8, ptr %1, i64 8
  %15 = load ptr, ptr %14, align 8, !tbaa !33
  %16 = load ptr, ptr %13, align 8, !tbaa !3
  %17 = load ptr, ptr %15, align 8, !tbaa !3
  store ptr %17, ptr %13, align 8, !tbaa !3
  store ptr %16, ptr %15, align 8, !tbaa !3
  %18 = load ptr, ptr %0, align 8, !tbaa !26
  %19 = getelementptr inbounds nuw i8, ptr %18, i64 8
  %20 = load ptr, ptr %1, align 8, !tbaa !26
  %21 = getelementptr inbounds nuw i8, ptr %20, i64 8
  %22 = load ptr, ptr %19, align 8, !tbaa !3
  %23 = load ptr, ptr %21, align 8, !tbaa !3
  store ptr %23, ptr %19, align 8, !tbaa !3
  store ptr %22, ptr %21, align 8, !tbaa !3
  call void @llvm.lifetime.start.p0(i64 16, ptr nonnull %3)
  call void @llvm.memcpy.p0.p0.i64(ptr noundef nonnull align 8 dereferenceable(16) %3, ptr noundef nonnull align 8 dereferenceable(16) %0, i64 16, i1 false), !tbaa.struct !27
  tail call void @llvm.memcpy.p0.p0.i64(ptr noundef nonnull align 8 dereferenceable(16) %0, ptr noundef nonnull align 8 dereferenceable(16) %1, i64 16, i1 false), !tbaa.struct !27
  call void @llvm.memcpy.p0.p0.i64(ptr noundef nonnull align 8 dereferenceable(16) %1, ptr noundef nonnull align 8 dereferenceable(16) %3, i64 16, i1 false), !tbaa.struct !27
  call void @llvm.lifetime.end.p0(i64 16, ptr nonnull %3)
  %24 = load i64, ptr %4, align 8, !tbaa !32
  %25 = load i64, ptr %7, align 8, !tbaa !32
  br label %.sink.split

26:                                               ; preds = %10
  %27 = load ptr, ptr %0, align 8, !tbaa !26
  %28 = getelementptr inbounds nuw i8, ptr %27, i64 8
  store ptr %1, ptr %28, align 8, !tbaa !17
  %29 = getelementptr inbounds nuw i8, ptr %0, i64 8
  %30 = load ptr, ptr %29, align 8, !tbaa !33
  store ptr %1, ptr %30, align 8, !tbaa !19
  tail call void @llvm.memcpy.p0.p0.i64(ptr noundef nonnull align 8 dereferenceable(16) %1, ptr noundef nonnull align 8 dereferenceable(16) %0, i64 16, i1 false), !tbaa.struct !27
  store ptr %0, ptr %0, align 8, !tbaa !26
  store ptr %0, ptr %29, align 8, !tbaa !33
  %31 = load i64, ptr %4, align 8, !tbaa !32
  br label %.sink.split

32:                                               ; preds = %2
  br i1 %9, label %43, label %33

33:                                               ; preds = %32
  %34 = load ptr, ptr %1, align 8, !tbaa !26
  %35 = getelementptr inbounds nuw i8, ptr %34, i64 8
  store ptr %0, ptr %35, align 8, !tbaa !17
  %36 = getelementptr inbounds nuw i8, ptr %1, i64 8
  %37 = load ptr, ptr %36, align 8, !tbaa !33
  store ptr %0, ptr %37, align 8, !tbaa !19
  tail call void @llvm.memcpy.p0.p0.i64(ptr noundef nonnull align 8 dereferenceable(16) %0, ptr noundef nonnull align 8 dereferenceable(16) %1, i64 16, i1 false), !tbaa.struct !27
  store ptr %1, ptr %1, align 8, !tbaa !26
  store ptr %1, ptr %36, align 8, !tbaa !33
  %38 = load i64, ptr %7, align 8, !tbaa !32
  br label %.sink.split

.sink.split:                                      ; preds = %26, %11, %33
  %.sink25 = phi i64 [ %38, %33 ], [ %25, %11 ], [ 0, %26 ]
  %.sink = phi i64 [ 0, %33 ], [ %24, %11 ], [ %31, %26 ]
  store i64 %.sink25, ptr %4, align 8, !tbaa !32
  store i64 %.sink, ptr %7, align 8, !tbaa !32
  %39 = getelementptr inbounds nuw i8, ptr %0, i64 24
  %40 = getelementptr inbounds nuw i8, ptr %1, i64 24
  %41 = load i8, ptr %39, align 8, !tbaa !34, !range !35, !noundef !36
  %42 = load i8, ptr %40, align 8, !tbaa !34, !range !35, !noundef !36
  store i8 %42, ptr %39, align 8, !tbaa !34
  store i8 %41, ptr %40, align 8, !tbaa !34
  br label %43

43:                                               ; preds = %.sink.split, %32
  ret void
}